target datalayout = "e-m:e-p270:32:32-p271:32:32-p272:64:64-i64:64-i128:128-f80:128-n8:16:32:64-S128"
target triple = "x86_64-pc-linux-gnu"

%"struct.pkpy::Type" = type { i16 }
%class.anon.335 = type { i8 }
%"struct.pkpy::PyObject" = type { ptr, i8, i8, %"struct.pkpy::Type", ptr }
%"struct.pkpy::pod_vector.619" = type { i32, i32, ptr }
%"struct.pkpy::Py_.626" = type { %"struct.pkpy::PyObject", %"struct.pkpy::pod_vector.619" }

@__const._ZN4pkpy18_py_cast__internalIRNS_10pod_vectorIPNS_8PyObjectELi4EEELb0EEET_PNS_2VMES3_.const_type = private unnamed_addr constant %"struct.pkpy::Type" { i16 6 }, align 2

; Function Attrs: mustprogress nounwind uwtable
define linkonce_odr noundef nonnull align 8 dereferenceable(16) ptr @_ZN4pkpy18_py_cast__internalIRNS_10pod_vectorIPNS_8PyObjectELi4EEELb0EEET_PNS_2VMES3_(ptr noundef %0, ptr noundef %1) #5 comdat {
  %3 = alloca ptr, align 8
  %4 = alloca ptr, align 8
  %5 = alloca %"struct.pkpy::Type", align 2
  store ptr %0, ptr %3, align 8
  store ptr %1, ptr %4, align 8
  call void @llvm.memcpy.p0.p0.i64(ptr align 2 %5, ptr align 2 @__const._ZN4pkpy18_py_cast__internalIRNS_10pod_vectorIPNS_8PyObjectELi4EEELb0EEET_PNS_2VMES3_.const_type, i64 2, i1 false)
  %6 = load ptr, ptr %4, align 8
  %7 = getelementptr inbounds %"struct.pkpy::Py_.626", ptr %6, i32 0, i32 1
  ret ptr %7
}

; Function Attrs: mustprogress nounwind uwtable
define linkonce_odr void @_ZN4pkpy10pod_vectorIPNS_8PyObjectELi4EE5eraseEi(ptr noundef nonnull align 8 dereferenceable(16) %0, i32 noundef %1) #5 comdat align 2 {
  %3 = alloca ptr, align 8
  %4 = alloca i32, align 4
  %5 = alloca i32, align 4
  store ptr %0, ptr %3, align 8
  store i32 %1, ptr %4, align 4
  %6 = load ptr, ptr %3, align 8
  %7 = load i32, ptr %4, align 4
  store i32 %7, ptr %5, align 4
  br label %8

8:                                                ; preds = %27, %2
  %9 = load i32, ptr %5, align 4
  %10 = getelementptr inbounds %"struct.pkpy::pod_vector.619", ptr %6, i32 0, i32 0
  %11 = load i32, ptr %10, align 8
  %12 = sub nsw i32 %11, 1
  %13 = icmp slt i32 %9, %12
  br i1 %13, label %14, label %30

14:                                               ; preds = %8
  %15 = getelementptr inbounds %"struct.pkpy::pod_vector.619", ptr %6, i32 0, i32 2
  %16 = load ptr, ptr %15, align 8
  %17 = load i32, ptr %5, align 4
  %18 = add nsw i32 %17, 1
  %19 = sext i32 %18 to i64
  %20 = getelementptr inbounds ptr, ptr %16, i64 %19
  %21 = load ptr, ptr %20, align 8
  %22 = getelementptr inbounds %"struct.pkpy::pod_vector.619", ptr %6, i32 0, i32 2
  %23 = load ptr, ptr %22, align 8
  %24 = load i32, ptr %5, align 4
  %25 = sext i32 %24 to i64
  %26 = getelementptr inbounds ptr, ptr %23, i64 %25
  store ptr %21, ptr %26, align 8
  br label %27

27:                                               ; preds = %14
  %28 = load i32, ptr %5, align 4
  %29 = add nsw i32 %28, 1
  store i32 %29, ptr %5, align 4
  br label %8, !llvm.loop !75

30:                                               ; preds = %8
  %31 = getelementptr inbounds %"struct.pkpy::pod_vector.619", ptr %6, i32 0, i32 0
  %32 = load i32, ptr %31, align 8
  %33 = add nsw i32 %32, -1
  store i32 %33, ptr %31, align 8
  ret void
}

; Function Attrs: mustprogress nounwind uwtable
define linkonce_odr noundef i32 @_ZNK4pkpy10pod_vectorIPNS_8PyObjectELi4EE4sizeEv(ptr noundef nonnull align 8 dereferenceable(16) %0) #5 comdat align 2 {
  %2 = alloca ptr, align 8
  store ptr %0, ptr %2, align 8
  %3 = load ptr, ptr %2, align 8
  %4 = getelementptr inbounds %"struct.pkpy::pod_vector.619", ptr %3, i32 0, i32 0
  %5 = load i32, ptr %4, align 8
  ret i32 %5
}

; Function Attrs: mustprogress uwtable
define linkonce_odr noundef i64 @_ZN4pkpy7py_castIlEET_PNS_2VMEPNS_8PyObjectE(ptr noundef %0, ptr noundef %1) #4 comdat {
  %3 = alloca ptr, align 8
  %4 = alloca ptr, align 8
  store ptr %0, ptr %3, align 8
  store ptr %1, ptr %4, align 8
  %5 = load ptr, ptr %3, align 8
  %6 = load ptr, ptr %4, align 8
  %7 = call noundef i64 @_ZN4pkpy18_py_cast__internalIlLb1EEET_PNS_2VMEPNS_8PyObjectE(ptr noundef %5, ptr noundef %6)
  ret i64 %7
}

; Function Attrs: mustprogress uwtable
define linkonce_odr noundef nonnull align 8 dereferenceable(16) ptr @_ZN4pkpy8_py_castIRNS_10pod_vectorIPNS_8PyObjectELi4EEEEET_PNS_2VMES3_(ptr noundef %0, ptr noundef %1) #4 comdat {
  %3 = alloca ptr, align 8
  %4 = alloca ptr, align 8
  store ptr %0, ptr %3, align 8
  store ptr %1, ptr %4, align 8
  %5 = load ptr, ptr %3, align 8
  %6 = load ptr, ptr %4, align 8
  %7 = call noundef nonnull align 8 dereferenceable(16) ptr @_ZN4pkpy18_py_cast__internalIRNS_10pod_vectorIPNS_8PyObjectELi4EEELb0EEET_PNS_2VMES3_(ptr noundef %5, ptr noundef %6)
  ret ptr %7
}

; Function Attrs: mustprogress uwtable
define internal void @"_ZZN4pkpy15__init_builtinsEPNS_2VMEENK5$_140clES1_PNS_8PyObjectES4_"(ptr noundef nonnull align 1 dereferenceable(1) %0, ptr noundef %1, ptr noundef %2, ptr noundef %3) #4 align 2 {
  %5 = alloca ptr, align 8
  %6 = alloca ptr, align 8
  %7 = alloca ptr, align 8
  %8 = alloca ptr, align 8
  %9 = alloca ptr, align 8
  %10 = alloca i64, align 8
  store ptr %0, ptr %5, align 8
  store ptr %1, ptr %6, align 8
  store ptr %2, ptr %7, align 8
  store ptr %3, ptr %8, align 8
  %11 = load ptr, ptr %6, align 8
  %12 = load ptr, ptr %7, align 8
  %13 = call noundef nonnull align 8 dereferenceable(16) ptr @_ZN4pkpy8_py_castIRNS_10pod_vectorIPNS_8PyObjectELi4EEEEET_PNS_2VMES3_(ptr noundef %11, ptr noundef %12)
  store ptr %13, ptr %9, align 8
  %14 = load ptr, ptr %6, align 8
  %15 = load ptr, ptr %8, align 8
  %16 = call noundef i64 @_ZN4pkpy7py_castIlEET_PNS_2VMEPNS_8PyObjectE(ptr noundef %14, ptr noundef %15)
  store i64 %16, ptr %10, align 8
  %17 = load ptr, ptr %6, align 8
  %18 = load i64, ptr %10, align 8
  %19 = load ptr, ptr %9, align 8
  %20 = call noundef i32 @_ZNK4pkpy10pod_vectorIPNS_8PyObjectELi4EE4sizeEv(ptr noundef nonnull align 8 dereferenceable(16) %19)
  %21 = call noundef i64 @_ZN4pkpy2VM16normalized_indexEli(ptr noundef nonnull align 8 dereferenceable(264913) %17, i64 noundef %18, i32 noundef %20)
  store i64 %21, ptr %10, align 8
  %22 = load ptr, ptr %9, align 8
  %23 = load i64, ptr %10, align 8
  %24 = trunc i64 %23 to i32
  call void @_ZN4pkpy10pod_vectorIPNS_8PyObjectELi4EE5eraseEi(ptr noundef nonnull align 8 dereferenceable(16) %22, i32 noundef %24)
  ret void
}

; Function Attrs: mustprogress uwtable
define internal void @"_ZZN4pkpy15__init_builtinsEPNS_2VMEEN5$_1408__invokeES1_PNS_8PyObjectES4_"(ptr noundef %0, ptr noundef %1, ptr noundef %2) #4 align 2 {
  %4 = alloca ptr, align 8
  %5 = alloca ptr, align 8
  %6 = alloca ptr, align 8
  %7 = alloca %class.anon.335, align 1
  store ptr %0, ptr %4, align 8
  store ptr %1, ptr %5, align 8
  store ptr %2, ptr %6, align 8
  %8 = load ptr, ptr %4, align 8
  %9 = load ptr, ptr %5, align 8
  %10 = load ptr, ptr %6, align 8
  call void @"_ZZN4pkpy15__init_builtinsEPNS_2VMEENK5$_140clES1_PNS_8PyObjectES4_"(ptr noundef nonnull align 1 dereferenceable(1) %7, ptr noundef %8, ptr noundef %9, ptr noundef %10)
  ret void
}