; Function Attrs: mustprogress uwtable
define internal void @"_ZZN4pkpy15__init_builtinsEPNS_2VMEEN5$_1408__invokeES1_PNS_8PyObjectES4_"(ptr noundef %0, ptr nocapture noundef %1, ptr noundef %2) #4 align 2 {
  %4 = getelementptr inbounds i8, ptr %1, i64 24
  %5 = tail call noundef i64 @_ZN4pkpy18_py_cast__internalIlLb1EEET_PNS_2VMEPNS_8PyObjectE(ptr noundef %0, ptr noundef %2)
  %6 = load i32, ptr %4, align 8
  %7 = tail call noundef i64 @_ZN4pkpy2VM16normalized_indexEli(ptr noundef nonnull align 8 dereferenceable(264913) %0, i64 noundef %5, i32 noundef %6)
  %8 = trunc i64 %7 to i32
  %9 = load i32, ptr %4, align 8
  %10 = add nsw i32 %9, -1
  %11 = icmp sgt i32 %10, %8
  br i1 %11, label %.lr.ph.i.i, label %"_ZZN4pkpy15__init_builtinsEPNS_2VMEENK5$_140clES1_PNS_8PyObjectES4_.exit"

.lr.ph.i.i:                                       ; preds = %3
  %12 = getelementptr inbounds i8, ptr %1, i64 32
  %sext.i = shl i64 %7, 32
  %13 = ashr exact i64 %sext.i, 32
  br label %14

14:                                               ; preds = %14, %.lr.ph.i.i
  %indvars.iv.i.i = phi i64 [ %13, %.lr.ph.i.i ], [ %indvars.iv.next.i.i, %14 ]
  %15 = load ptr, ptr %12, align 8
  %indvars.iv.next.i.i = add nsw i64 %indvars.iv.i.i, 1
  %16 = getelementptr inbounds ptr, ptr %15, i64 %indvars.iv.next.i.i
  %17 = load ptr, ptr %16, align 8
  %18 = getelementptr inbounds ptr, ptr %15, i64 %indvars.iv.i.i
  store ptr %17, ptr %18, align 8
  %19 = load i32, ptr %4, align 8
  %20 = add nsw i32 %19, -1
  %21 = sext i32 %20 to i64
  %22 = icmp slt i64 %indvars.iv.next.i.i, %21
  br i1 %22, label %14, label %"_ZZN4pkpy15__init_builtinsEPNS_2VMEENK5$_140clES1_PNS_8PyObjectES4_.exit", !llvm.loop !139

"_ZZN4pkpy15__init_builtinsEPNS_2VMEENK5$_140clES1_PNS_8PyObjectES4_.exit": ; preds = %14, %3
  %.lcssa.i.i = phi i32 [ %10, %3 ], [ %20, %14 ]
  store i32 %.lcssa.i.i, ptr %4, align 8
  ret void
}